; Function Attrs: mustprogress uwtable
define noundef double @_ZN5Ipopt25IpoptCalculatedQuantities14CalcNormOfTypeENS_9ENormTypeERKNS_6VectorES4_(ptr nonnull readnone align 8 captures(none) %0, i32 noundef %1, ptr noundef nonnull align 8 dereferenceable(205) %2, ptr noundef nonnull align 8 dereferenceable(205) %3) local_unnamed_addr #6 align 2 {
  switch i32 %1, label %83 [
    i32 0, label %5
    i32 1, label %31
    i32 2, label %57
  ]

5:                                                ; preds = %4
  %6 = getelementptr inbounds nuw i8, ptr %2, i64 104
  %7 = load i32, ptr %6, align 8, !tbaa !120
  %8 = getelementptr inbounds nuw i8, ptr %2, i64 48
  %9 = load i32, ptr %8, align 8, !tbaa !108
  %.not.i = icmp eq i32 %7, %9
  br i1 %.not.i, label %._crit_edge.i, label %10

._crit_edge.i:                                    ; preds = %5
  %.phi.trans.insert.i = getelementptr inbounds nuw i8, ptr %2, i64 112
  %.pre.i = load double, ptr %.phi.trans.insert.i, align 8, !tbaa !121
  br label %_ZNK5Ipopt6Vector4AsumEv.exit

10:                                               ; preds = %5
  %11 = load ptr, ptr %2, align 8, !tbaa !16
  %12 = getelementptr inbounds nuw i8, ptr %11, i64 56
  %13 = load ptr, ptr %12, align 8
  %14 = tail call noundef double %13(ptr noundef nonnull align 8 dereferenceable(205) %2)
  %15 = getelementptr inbounds nuw i8, ptr %2, i64 112
  store double %14, ptr %15, align 8, !tbaa !121
  %16 = load i32, ptr %8, align 8, !tbaa !108
  store i32 %16, ptr %6, align 8, !tbaa !120
  br label %_ZNK5Ipopt6Vector4AsumEv.exit

_ZNK5Ipopt6Vector4AsumEv.exit:                    ; preds = %._crit_edge.i, %10
  %17 = phi double [ %.pre.i, %._crit_edge.i ], [ %14, %10 ]
  %18 = getelementptr inbounds nuw i8, ptr %3, i64 104
  %19 = load i32, ptr %18, align 8, !tbaa !120
  %20 = getelementptr inbounds nuw i8, ptr %3, i64 48
  %21 = load i32, ptr %20, align 8, !tbaa !108
  %.not.i7 = icmp eq i32 %19, %21
  br i1 %.not.i7, label %._crit_edge.i8, label %22

._crit_edge.i8:                                   ; preds = %_ZNK5Ipopt6Vector4AsumEv.exit
  %.phi.trans.insert.i9 = getelementptr inbounds nuw i8, ptr %3, i64 112
  %.pre.i10 = load double, ptr %.phi.trans.insert.i9, align 8, !tbaa !121
  br label %_ZNK5Ipopt6Vector4AsumEv.exit11

22:                                               ; preds = %_ZNK5Ipopt6Vector4AsumEv.exit
  %23 = load ptr, ptr %3, align 8, !tbaa !16
  %24 = getelementptr inbounds nuw i8, ptr %23, i64 56
  %25 = load ptr, ptr %24, align 8
  %26 = tail call noundef double %25(ptr noundef nonnull align 8 dereferenceable(205) %3)
  %27 = getelementptr inbounds nuw i8, ptr %3, i64 112
  store double %26, ptr %27, align 8, !tbaa !121
  %28 = load i32, ptr %20, align 8, !tbaa !108
  store i32 %28, ptr %18, align 8, !tbaa !120
  br label %_ZNK5Ipopt6Vector4AsumEv.exit11

_ZNK5Ipopt6Vector4AsumEv.exit11:                  ; preds = %._crit_edge.i8, %22
  %29 = phi double [ %.pre.i10, %._crit_edge.i8 ], [ %26, %22 ]
  %30 = fadd double %17, %29
  br label %83

31:                                               ; preds = %4
  %32 = getelementptr inbounds nuw i8, ptr %2, i64 88
  %33 = load i32, ptr %32, align 8, !tbaa !117
  %34 = getelementptr inbounds nuw i8, ptr %2, i64 48
  %35 = load i32, ptr %34, align 8, !tbaa !108
  %.not.i12 = icmp eq i32 %33, %35
  br i1 %.not.i12, label %._crit_edge.i13, label %36

._crit_edge.i13:                                  ; preds = %31
  %.phi.trans.insert.i14 = getelementptr inbounds nuw i8, ptr %2, i64 96
  %.pre.i15 = load double, ptr %.phi.trans.insert.i14, align 8, !tbaa !119
  br label %_ZNK5Ipopt6Vector4Nrm2Ev.exit

36:                                               ; preds = %31
  %37 = load ptr, ptr %2, align 8, !tbaa !16
  %38 = getelementptr inbounds nuw i8, ptr %37, i64 48
  %39 = load ptr, ptr %38, align 8
  %40 = tail call noundef double %39(ptr noundef nonnull align 8 dereferenceable(205) %2)
  %41 = getelementptr inbounds nuw i8, ptr %2, i64 96
  store double %40, ptr %41, align 8, !tbaa !119
  %42 = load i32, ptr %34, align 8, !tbaa !108
  store i32 %42, ptr %32, align 8, !tbaa !117
  br label %_ZNK5Ipopt6Vector4Nrm2Ev.exit

_ZNK5Ipopt6Vector4Nrm2Ev.exit:                    ; preds = %._crit_edge.i13, %36
  %43 = phi double [ %.pre.i15, %._crit_edge.i13 ], [ %40, %36 ]
  %square = fmul double %43, %43
  %44 = getelementptr inbounds nuw i8, ptr %3, i64 88
  %45 = load i32, ptr %44, align 8, !tbaa !117
  %46 = getelementptr inbounds nuw i8, ptr %3, i64 48
  %47 = load i32, ptr %46, align 8, !tbaa !108
  %.not.i16 = icmp eq i32 %45, %47
  br i1 %.not.i16, label %._crit_edge.i17, label %48

._crit_edge.i17:                                  ; preds = %_ZNK5Ipopt6Vector4Nrm2Ev.exit
  %.phi.trans.insert.i18 = getelementptr inbounds nuw i8, ptr %3, i64 96
  %.pre.i19 = load double, ptr %.phi.trans.insert.i18, align 8, !tbaa !119
  br label %_ZNK5Ipopt6Vector4Nrm2Ev.exit20

48:                                               ; preds = %_ZNK5Ipopt6Vector4Nrm2Ev.exit
  %49 = load ptr, ptr %3, align 8, !tbaa !16
  %50 = getelementptr inbounds nuw i8, ptr %49, i64 48
  %51 = load ptr, ptr %50, align 8
  %52 = tail call noundef double %51(ptr noundef nonnull align 8 dereferenceable(205) %3)
  %53 = getelementptr inbounds nuw i8, ptr %3, i64 96
  store double %52, ptr %53, align 8, !tbaa !119
  %54 = load i32, ptr %46, align 8, !tbaa !108
  store i32 %54, ptr %44, align 8, !tbaa !117
  br label %_ZNK5Ipopt6Vector4Nrm2Ev.exit20

_ZNK5Ipopt6Vector4Nrm2Ev.exit20:                  ; preds = %._crit_edge.i17, %48
  %55 = phi double [ %.pre.i19, %._crit_edge.i17 ], [ %52, %48 ]
  %square30 = fmul double %55, %55
  %56 = fadd double %square, %square30
  %sqrt = tail call double @llvm.sqrt.f64(double %56)
  br label %83

57:                                               ; preds = %4
  %58 = getelementptr inbounds nuw i8, ptr %2, i64 120
  %59 = load i32, ptr %58, align 8, !tbaa !122
  %60 = getelementptr inbounds nuw i8, ptr %2, i64 48
  %61 = load i32, ptr %60, align 8, !tbaa !108
  %.not.i21 = icmp eq i32 %59, %61
  br i1 %.not.i21, label %._crit_edge.i22, label %62

._crit_edge.i22:                                  ; preds = %57
  %.phi.trans.insert.i23 = getelementptr inbounds nuw i8, ptr %2, i64 128
  %.pre.i24 = load double, ptr %.phi.trans.insert.i23, align 8, !tbaa !123
  br label %_ZNK5Ipopt6Vector4AmaxEv.exit

62:                                               ; preds = %57
  %63 = load ptr, ptr %2, align 8, !tbaa !16
  %64 = getelementptr inbounds nuw i8, ptr %63, i64 64
  %65 = load ptr, ptr %64, align 8
  %66 = tail call noundef double %65(ptr noundef nonnull align 8 dereferenceable(205) %2)
  %67 = getelementptr inbounds nuw i8, ptr %2, i64 128
  store double %66, ptr %67, align 8, !tbaa !123
  %68 = load i32, ptr %60, align 8, !tbaa !108
  store i32 %68, ptr %58, align 8, !tbaa !122
  br label %_ZNK5Ipopt6Vector4AmaxEv.exit

_ZNK5Ipopt6Vector4AmaxEv.exit:                    ; preds = %._crit_edge.i22, %62
  %69 = phi double [ %.pre.i24, %._crit_edge.i22 ], [ %66, %62 ]
  %70 = getelementptr inbounds nuw i8, ptr %3, i64 120
  %71 = load i32, ptr %70, align 8, !tbaa !122
  %72 = getelementptr inbounds nuw i8, ptr %3, i64 48
  %73 = load i32, ptr %72, align 8, !tbaa !108
  %.not.i25 = icmp eq i32 %71, %73
  br i1 %.not.i25, label %._crit_edge.i26, label %74

._crit_edge.i26:                                  ; preds = %_ZNK5Ipopt6Vector4AmaxEv.exit
  %.phi.trans.insert.i27 = getelementptr inbounds nuw i8, ptr %3, i64 128
  %.pre.i28 = load double, ptr %.phi.trans.insert.i27, align 8, !tbaa !123
  br label %_ZNK5Ipopt6Vector4AmaxEv.exit29

74:                                               ; preds = %_ZNK5Ipopt6Vector4AmaxEv.exit
  %75 = load ptr, ptr %3, align 8, !tbaa !16
  %76 = getelementptr inbounds nuw i8, ptr %75, i64 64
  %77 = load ptr, ptr %76, align 8
  %78 = tail call noundef double %77(ptr noundef nonnull align 8 dereferenceable(205) %3)
  %79 = getelementptr inbounds nuw i8, ptr %3, i64 128
  store double %78, ptr %79, align 8, !tbaa !123
  %80 = load i32, ptr %72, align 8, !tbaa !108
  store i32 %80, ptr %70, align 8, !tbaa !122
  br label %_ZNK5Ipopt6Vector4AmaxEv.exit29

_ZNK5Ipopt6Vector4AmaxEv.exit29:                  ; preds = %._crit_edge.i26, %74
  %81 = phi double [ %.pre.i28, %._crit_edge.i26 ], [ %78, %74 ]
  %82 = fcmp olt double %69, %81
  %.sroa.speculated.i = select i1 %82, double %81, double %69
  br label %83

83:                                               ; preds = %4, %_ZNK5Ipopt6Vector4AmaxEv.exit29, %_ZNK5Ipopt6Vector4Nrm2Ev.exit20, %_ZNK5Ipopt6Vector4AsumEv.exit11
  %.0 = phi double [ %.sroa.speculated.i, %_ZNK5Ipopt6Vector4AmaxEv.exit29 ], [ %sqrt, %_ZNK5Ipopt6Vector4Nrm2Ev.exit20 ], [ %30, %_ZNK5Ipopt6Vector4AsumEv.exit11 ], [ 0.000000e+00, %4 ]
  ret double %.0
}